; Function Attrs: null_pointer_is_valid sspstrong uwtable
define hidden i32 @samr_dissect_struct_DomInfo9(ptr noundef %0, i32 noundef %1, ptr noundef %2, ptr noundef %3, ptr noundef %4, ptr noundef %5, i32 noundef %6, i32 %7) local_unnamed_addr #0 {
  %9 = alloca i32, align 4
  %10 = getelementptr inbounds nuw i8, ptr %4, i64 25
  %11 = load i8, ptr %10, align 1, !range !6, !noundef !7
  %12 = trunc nuw i8 %11 to i1
  %13 = and i32 %1, 3
  %.not = icmp eq i32 %13, 0
  %or.cond = or i1 %.not, %12
  %14 = and i32 %1, -4
  %15 = add i32 %14, 4
  %.0 = select i1 %or.cond, i32 %1, i32 %15
  %.not26 = icmp eq ptr %3, null
  br i1 %.not26, label %20, label %16

16:                                               ; preds = %8
  %17 = tail call ptr @proto_tree_add_item(ptr noundef nonnull %3, i32 noundef %6, ptr noundef %0, i32 noundef %.0, i32 noundef -1, i32 noundef 0)
  %18 = load i32, ptr @ett_samr_samr_DomInfo9, align 4
  %19 = tail call ptr @proto_item_add_subtree(ptr noundef %17, i32 noundef %18)
  br label %20

20:                                               ; preds = %16, %8
  %.024 = phi ptr [ %17, %16 ], [ null, %8 ]
  %.023 = phi ptr [ %19, %16 ], [ null, %8 ]
  %21 = load i32, ptr @hf_samr_samr_DomInfo9_domain_server_state, align 4
  call void @llvm.lifetime.start.p0(i64 4, ptr nonnull %9) #5
  store i32 0, ptr %9, align 4
  %22 = call i32 @dissect_ndr_uint32(ptr noundef %0, i32 noundef %.0, ptr noundef %2, ptr noundef %.023, ptr noundef %4, ptr noundef %5, i32 noundef %21, ptr noundef nonnull %9)
  call void @llvm.lifetime.end.p0(i64 4, ptr nonnull %9) #5
  %23 = sub i32 %22, %.0
  call void @proto_item_set_len(ptr noundef %.024, i32 noundef %23)
  %24 = getelementptr inbounds nuw i8, ptr %4, i64 64
  %25 = load ptr, ptr %24, align 8
  %26 = getelementptr inbounds nuw i8, ptr %25, i64 96
  %27 = load i32, ptr %26, align 8
  %28 = and i32 %27, 1
  %.not27 = icmp eq i32 %28, 0
  br i1 %.not27, label %36, label %29

29:                                               ; preds = %20
  %30 = load i8, ptr %10, align 1, !range !6, !noundef !7
  %31 = trunc nuw i8 %30 to i1
  %32 = and i32 %22, 3
  %.not28 = icmp eq i32 %32, 0
  %or.cond29 = or i1 %.not28, %31
  br i1 %or.cond29, label %36, label %33

33:                                               ; preds = %29
  %34 = and i32 %22, -4
  %35 = add i32 %34, 4
  br label %36

36:                                               ; preds = %29, %33, %20
  %.1 = phi i32 [ %22, %29 ], [ %35, %33 ], [ %22, %20 ]
  ret i32 %.1
}